; Function Attrs: mustprogress uwtable
define hidden void @_ZN4goal12slow_processEP4exprP3appPN18dependency_managerIN11ast_manager22expr_dependency_configEE10dependencyE(ptr noundef nonnull align 8 dereferenceable(124) %0, ptr noundef %1, ptr noundef %2, ptr noundef %3) local_unnamed_addr #4 align 2 personality ptr @__gxx_personality_v0 {
  %5 = alloca %class.obj_ref.29, align 8
  %6 = alloca %class.obj_ref, align 8
  call void @llvm.lifetime.start.p0(i64 16, ptr nonnull %5) #25
  %7 = load ptr, ptr %0, align 8, !tbaa !102
  store ptr null, ptr %5, align 8, !tbaa !119
  %8 = getelementptr inbounds nuw i8, ptr %5, i64 8
  store ptr %7, ptr %8, align 8, !tbaa !3
  call void @llvm.lifetime.start.p0(i64 16, ptr nonnull %6) #25
  store ptr null, ptr %6, align 8, !tbaa !109
  %9 = getelementptr inbounds nuw i8, ptr %6, i64 8
  store ptr %7, ptr %9, align 8, !tbaa !3
  invoke void @_ZN4goal12slow_processEbP4exprP3appPN18dependency_managerIN11ast_manager22expr_dependency_configEE10dependencyER7obj_refIS0_S5_ERSA_IS2_S5_E(ptr noundef nonnull align 8 dereferenceable(124) %0, i1 noundef zeroext false, ptr noundef %1, ptr noundef %2, ptr noundef %3, ptr noundef nonnull align 8 dereferenceable(16) %5, ptr noundef nonnull align 8 dereferenceable(16) %6)
          to label %10 unwind label %33

10:                                               ; preds = %4
  %11 = load ptr, ptr %6, align 8, !tbaa !109
  %.not.i.i = icmp eq ptr %11, null
  br i1 %.not.i.i, label %_ZN7obj_refI3app11ast_managerED2Ev.exit, label %12

12:                                               ; preds = %10
  %13 = load ptr, ptr %9, align 8, !tbaa !118
  %14 = getelementptr inbounds nuw i8, ptr %11, i64 8
  %15 = load i32, ptr %14, align 4, !tbaa !107
  %16 = add i32 %15, -1
  store i32 %16, ptr %14, align 4, !tbaa !107
  %17 = icmp eq i32 %16, 0
  br i1 %17, label %18, label %_ZN7obj_refI3app11ast_managerED2Ev.exit

18:                                               ; preds = %12
  invoke void @_ZN11ast_manager11delete_nodeEP3ast(ptr noundef nonnull align 8 dereferenceable(976) %13, ptr noundef nonnull %11)
          to label %_ZN7obj_refI3app11ast_managerED2Ev.exit unwind label %19

19:                                               ; preds = %18
  %20 = landingpad { ptr, i32 }
          catch ptr null
  %21 = extractvalue { ptr, i32 } %20, 0
  tail call void @__clang_call_terminate(ptr %21) #26
  unreachable

_ZN7obj_refI3app11ast_managerED2Ev.exit:          ; preds = %10, %12, %18
  call void @llvm.lifetime.end.p0(i64 16, ptr nonnull %6) #25
  %22 = load ptr, ptr %5, align 8, !tbaa !119
  %.not.i.i5 = icmp eq ptr %22, null
  br i1 %.not.i.i5, label %_ZN7obj_refI4expr11ast_managerED2Ev.exit, label %23

23:                                               ; preds = %_ZN7obj_refI3app11ast_managerED2Ev.exit
  %24 = load ptr, ptr %8, align 8, !tbaa !147
  %25 = getelementptr inbounds nuw i8, ptr %22, i64 8
  %26 = load i32, ptr %25, align 4, !tbaa !107
  %27 = add i32 %26, -1
  store i32 %27, ptr %25, align 4, !tbaa !107
  %28 = icmp eq i32 %27, 0
  br i1 %28, label %29, label %_ZN7obj_refI4expr11ast_managerED2Ev.exit

29:                                               ; preds = %23
  invoke void @_ZN11ast_manager11delete_nodeEP3ast(ptr noundef nonnull align 8 dereferenceable(976) %24, ptr noundef nonnull %22)
          to label %_ZN7obj_refI4expr11ast_managerED2Ev.exit unwind label %30

30:                                               ; preds = %29
  %31 = landingpad { ptr, i32 }
          catch ptr null
  %32 = extractvalue { ptr, i32 } %31, 0
  tail call void @__clang_call_terminate(ptr %32) #26
  unreachable

_ZN7obj_refI4expr11ast_managerED2Ev.exit:         ; preds = %_ZN7obj_refI3app11ast_managerED2Ev.exit, %23, %29
  call void @llvm.lifetime.end.p0(i64 16, ptr nonnull %5) #25
  ret void

33:                                               ; preds = %4
  %34 = landingpad { ptr, i32 }
          cleanup
  call void @_ZN7obj_refI3app11ast_managerED2Ev(ptr noundef nonnull align 8 dereferenceable(16) %6) #25
  call void @llvm.lifetime.end.p0(i64 16, ptr nonnull %6) #25
  call void @_ZN7obj_refI4expr11ast_managerED2Ev(ptr noundef nonnull align 8 dereferenceable(16) %5) #25
  call void @llvm.lifetime.end.p0(i64 16, ptr nonnull %5) #25
  resume { ptr, i32 } %34
}